; Function Attrs: nounwind uwtable
define void @glfwWaitEventsTimeout(double noundef %0) local_unnamed_addr #0 {
  %2 = load i32, ptr @_glfw, align 8, !tbaa !138
  %.not = icmp eq i32 %2, 0
  br i1 %.not, label %3, label %4

3:                                                ; preds = %1
  tail call void (i32, ptr, ...) @_glfwInputError(i32 noundef 65537, ptr noundef null) #7
  br label %9

4:                                                ; preds = %1
  %or.cond = fcmp ult double %0, 0.000000e+00
  %5 = fcmp ogt double %0, 0x7FEFFFFFFFFFFFFF
  %or.cond3 = or i1 %or.cond, %5
  br i1 %or.cond3, label %6, label %7

6:                                                ; preds = %4
  tail call void (i32, ptr, ...) @_glfwInputError(i32 noundef 65540, ptr noundef nonnull @.str.11, double noundef %0) #7
  br label %9

7:                                                ; preds = %4
  %8 = load ptr, ptr getelementptr inbounds nuw (i8, ptr @_glfw, i64 552), align 8, !tbaa !278
  tail call void %8(double noundef %0) #7
  br label %9

9:                                                ; preds = %7, %6, %3
  ret void
}